; Function Attrs: nounwind uwtable
define internal fastcc void @_jumbleRangeTblEntry(ptr noundef %0, ptr noundef nonnull readonly captures(none) %1) unnamed_addr #0 {
  %3 = getelementptr inbounds nuw i8, ptr %1, i64 24
  %4 = load ptr, ptr %0, align 8
  %5 = getelementptr inbounds nuw i8, ptr %0, i64 8
  %6 = load i64, ptr %5, align 8
  br label %.lr.ph.i

.lr.ph.i:                                         ; preds = %10, %2
  %.026.i = phi ptr [ %15, %10 ], [ %3, %2 ]
  %.02125.i = phi i64 [ %16, %10 ], [ 4, %2 ]
  %.02224.i = phi i64 [ %14, %10 ], [ %6, %2 ]
  %7 = icmp ugt i64 %.02224.i, 1023
  br i1 %7, label %8, label %10

8:                                                ; preds = %.lr.ph.i
  %9 = tail call i64 @hash_bytes_extended(ptr noundef %4, i32 noundef 1024, i64 noundef 0) #9
  store i64 %9, ptr %4, align 1
  br label %10

10:                                               ; preds = %8, %.lr.ph.i
  %.1.i = phi i64 [ 8, %8 ], [ %.02224.i, %.lr.ph.i ]
  %11 = sub nuw nsw i64 1024, %.1.i
  %12 = tail call i64 @llvm.umin.i64(i64 %.02125.i, i64 %11)
  %13 = getelementptr inbounds nuw i8, ptr %4, i64 %.1.i
  tail call void @llvm.memcpy.p0.p0.i64(ptr noundef nonnull align 1 dereferenceable(1) %13, ptr noundef nonnull align 1 dereferenceable(1) %.026.i, i64 %12, i1 false)
  %14 = add nuw nsw i64 %12, %.1.i
  %15 = getelementptr inbounds nuw i8, ptr %.026.i, i64 %12
  %16 = sub i64 %.02125.i, %12
  %.not.i = icmp eq i64 %16, 0
  br i1 %.not.i, label %AppendJumble.exit, label %.lr.ph.i, !llvm.loop !7

AppendJumble.exit:                                ; preds = %10
  store i64 %14, ptr %5, align 8
  %17 = getelementptr inbounds nuw i8, ptr %1, i64 28
  %18 = load ptr, ptr %0, align 8
  br label %.lr.ph.i33

.lr.ph.i33:                                       ; preds = %22, %AppendJumble.exit
  %.026.i34 = phi ptr [ %27, %22 ], [ %17, %AppendJumble.exit ]
  %.02125.i35 = phi i64 [ %28, %22 ], [ 4, %AppendJumble.exit ]
  %.02224.i36 = phi i64 [ %26, %22 ], [ %14, %AppendJumble.exit ]
  %19 = icmp ugt i64 %.02224.i36, 1023
  br i1 %19, label %20, label %22

20:                                               ; preds = %.lr.ph.i33
  %21 = tail call i64 @hash_bytes_extended(ptr noundef %18, i32 noundef 1024, i64 noundef 0) #9
  store i64 %21, ptr %18, align 1
  br label %22

22:                                               ; preds = %20, %.lr.ph.i33
  %.1.i37 = phi i64 [ 8, %20 ], [ %.02224.i36, %.lr.ph.i33 ]
  %23 = sub nuw nsw i64 1024, %.1.i37
  %24 = tail call i64 @llvm.umin.i64(i64 %.02125.i35, i64 %23)
  %25 = getelementptr inbounds nuw i8, ptr %18, i64 %.1.i37
  tail call void @llvm.memcpy.p0.p0.i64(ptr noundef nonnull align 1 dereferenceable(1) %25, ptr noundef nonnull align 1 dereferenceable(1) %.026.i34, i64 %24, i1 false)
  %26 = add nuw nsw i64 %24, %.1.i37
  %27 = getelementptr inbounds nuw i8, ptr %.026.i34, i64 %24
  %28 = sub i64 %.02125.i35, %24
  %.not.i38 = icmp eq i64 %28, 0
  br i1 %.not.i38, label %AppendJumble.exit39, label %.lr.ph.i33, !llvm.loop !7

AppendJumble.exit39:                              ; preds = %22
  store i64 %26, ptr %5, align 8
  %29 = getelementptr inbounds nuw i8, ptr %1, i64 32
  %30 = load ptr, ptr %0, align 8
  br label %.lr.ph.i40

.lr.ph.i40:                                       ; preds = %34, %AppendJumble.exit39
  %.026.i41 = phi ptr [ %39, %34 ], [ %29, %AppendJumble.exit39 ]
  %.02125.i42 = phi i64 [ %40, %34 ], [ 1, %AppendJumble.exit39 ]
  %.02224.i43 = phi i64 [ %38, %34 ], [ %26, %AppendJumble.exit39 ]
  %31 = icmp ugt i64 %.02224.i43, 1023
  br i1 %31, label %32, label %34

32:                                               ; preds = %.lr.ph.i40
  %33 = tail call i64 @hash_bytes_extended(ptr noundef %30, i32 noundef 1024, i64 noundef 0) #9
  store i64 %33, ptr %30, align 1
  br label %34

34:                                               ; preds = %32, %.lr.ph.i40
  %.1.i44 = phi i64 [ 8, %32 ], [ %.02224.i43, %.lr.ph.i40 ]
  %35 = sub nuw nsw i64 1024, %.1.i44
  %36 = tail call i64 @llvm.umin.i64(i64 %.02125.i42, i64 %35)
  %37 = getelementptr inbounds nuw i8, ptr %30, i64 %.1.i44
  tail call void @llvm.memcpy.p0.p0.i64(ptr noundef nonnull align 1 dereferenceable(1) %37, ptr noundef nonnull align 1 dereferenceable(1) %.026.i41, i64 %36, i1 false)
  %38 = add nuw nsw i64 %36, %.1.i44
  %39 = getelementptr inbounds nuw i8, ptr %.026.i41, i64 %36
  %40 = sub i64 %.02125.i42, %36
  %.not.i45 = icmp eq i64 %40, 0
  br i1 %.not.i45, label %AppendJumble.exit46, label %.lr.ph.i40, !llvm.loop !7

AppendJumble.exit46:                              ; preds = %34
  store i64 %38, ptr %5, align 8
  %41 = getelementptr inbounds nuw i8, ptr %1, i64 48
  %42 = load ptr, ptr %41, align 8
  tail call fastcc void @_jumbleNode(ptr noundef nonnull %0, ptr noundef %42)
  %43 = getelementptr inbounds nuw i8, ptr %1, i64 56
  %44 = load ptr, ptr %43, align 8
  tail call fastcc void @_jumbleNode(ptr noundef nonnull %0, ptr noundef %44)
  %45 = getelementptr inbounds nuw i8, ptr %1, i64 68
  %46 = load ptr, ptr %0, align 8
  %47 = load i64, ptr %5, align 8
  br label %.lr.ph.i47

.lr.ph.i47:                                       ; preds = %51, %AppendJumble.exit46
  %.026.i48 = phi ptr [ %56, %51 ], [ %45, %AppendJumble.exit46 ]
  %.02125.i49 = phi i64 [ %57, %51 ], [ 4, %AppendJumble.exit46 ]
  %.02224.i50 = phi i64 [ %55, %51 ], [ %47, %AppendJumble.exit46 ]
  %48 = icmp ugt i64 %.02224.i50, 1023
  br i1 %48, label %49, label %51

49:                                               ; preds = %.lr.ph.i47
  %50 = tail call i64 @hash_bytes_extended(ptr noundef %46, i32 noundef 1024, i64 noundef 0) #9
  store i64 %50, ptr %46, align 1
  br label %51

51:                                               ; preds = %49, %.lr.ph.i47
  %.1.i51 = phi i64 [ 8, %49 ], [ %.02224.i50, %.lr.ph.i47 ]
  %52 = sub nuw nsw i64 1024, %.1.i51
  %53 = tail call i64 @llvm.umin.i64(i64 %.02125.i49, i64 %52)
  %54 = getelementptr inbounds nuw i8, ptr %46, i64 %.1.i51
  tail call void @llvm.memcpy.p0.p0.i64(ptr noundef nonnull align 1 dereferenceable(1) %54, ptr noundef nonnull align 1 dereferenceable(1) %.026.i48, i64 %53, i1 false)
  %55 = add nuw nsw i64 %53, %.1.i51
  %56 = getelementptr inbounds nuw i8, ptr %.026.i48, i64 %53
  %57 = sub i64 %.02125.i49, %53
  %.not.i52 = icmp eq i64 %57, 0
  br i1 %.not.i52, label %AppendJumble.exit53, label %.lr.ph.i47, !llvm.loop !7

AppendJumble.exit53:                              ; preds = %51
  store i64 %55, ptr %5, align 8
  %58 = getelementptr inbounds nuw i8, ptr %1, i64 112
  %59 = load ptr, ptr %58, align 8
  tail call fastcc void @_jumbleNode(ptr noundef nonnull %0, ptr noundef %59)
  %60 = getelementptr inbounds nuw i8, ptr %1, i64 120
  %61 = load ptr, ptr %0, align 8
  %62 = load i64, ptr %5, align 8
  br label %.lr.ph.i54

.lr.ph.i54:                                       ; preds = %66, %AppendJumble.exit53
  %.026.i55 = phi ptr [ %71, %66 ], [ %60, %AppendJumble.exit53 ]
  %.02125.i56 = phi i64 [ %72, %66 ], [ 1, %AppendJumble.exit53 ]
  %.02224.i57 = phi i64 [ %70, %66 ], [ %62, %AppendJumble.exit53 ]
  %63 = icmp ugt i64 %.02224.i57, 1023
  br i1 %63, label %64, label %66

64:                                               ; preds = %.lr.ph.i54
  %65 = tail call i64 @hash_bytes_extended(ptr noundef %61, i32 noundef 1024, i64 noundef 0) #9
  store i64 %65, ptr %61, align 1
  br label %66

66:                                               ; preds = %64, %.lr.ph.i54
  %.1.i58 = phi i64 [ 8, %64 ], [ %.02224.i57, %.lr.ph.i54 ]
  %67 = sub nuw nsw i64 1024, %.1.i58
  %68 = tail call i64 @llvm.umin.i64(i64 %.02125.i56, i64 %67)
  %69 = getelementptr inbounds nuw i8, ptr %61, i64 %.1.i58
  tail call void @llvm.memcpy.p0.p0.i64(ptr noundef nonnull align 1 dereferenceable(1) %69, ptr noundef nonnull align 1 dereferenceable(1) %.026.i55, i64 %68, i1 false)
  %70 = add nuw nsw i64 %68, %.1.i58
  %71 = getelementptr inbounds nuw i8, ptr %.026.i55, i64 %68
  %72 = sub i64 %.02125.i56, %68
  %.not.i59 = icmp eq i64 %72, 0
  br i1 %.not.i59, label %AppendJumble.exit60, label %.lr.ph.i54, !llvm.loop !7

AppendJumble.exit60:                              ; preds = %66
  store i64 %70, ptr %5, align 8
  %73 = getelementptr inbounds nuw i8, ptr %1, i64 128
  %74 = load ptr, ptr %73, align 8
  tail call fastcc void @_jumbleNode(ptr noundef nonnull %0, ptr noundef %74)
  %75 = getelementptr inbounds nuw i8, ptr %1, i64 136
  %76 = load ptr, ptr %75, align 8
  tail call fastcc void @_jumbleNode(ptr noundef nonnull %0, ptr noundef %76)
  %77 = getelementptr inbounds nuw i8, ptr %1, i64 144
  %78 = load ptr, ptr %77, align 8
  %.not = icmp eq ptr %78, null
  %.pre99 = load ptr, ptr %0, align 8
  %.pre100 = load i64, ptr %5, align 8
  br i1 %.not, label %92, label %79

79:                                               ; preds = %AppendJumble.exit60
  %80 = tail call i64 @strlen(ptr noundef nonnull dereferenceable(1) %78) #8
  %81 = add i64 %80, 1
  %.not23.i = icmp eq i64 %81, 0
  br i1 %.not23.i, label %AppendJumble.exit67, label %.lr.ph.i61

.lr.ph.i61:                                       ; preds = %79, %85
  %.026.i62 = phi ptr [ %90, %85 ], [ %78, %79 ]
  %.02125.i63 = phi i64 [ %91, %85 ], [ %81, %79 ]
  %.02224.i64 = phi i64 [ %89, %85 ], [ %.pre100, %79 ]
  %82 = icmp ugt i64 %.02224.i64, 1023
  br i1 %82, label %83, label %85

83:                                               ; preds = %.lr.ph.i61
  %84 = tail call i64 @hash_bytes_extended(ptr noundef %.pre99, i32 noundef 1024, i64 noundef 0) #9
  store i64 %84, ptr %.pre99, align 1
  br label %85

85:                                               ; preds = %83, %.lr.ph.i61
  %.1.i65 = phi i64 [ 8, %83 ], [ %.02224.i64, %.lr.ph.i61 ]
  %86 = sub nuw nsw i64 1024, %.1.i65
  %87 = tail call i64 @llvm.umin.i64(i64 %.02125.i63, i64 %86)
  %88 = getelementptr inbounds nuw i8, ptr %.pre99, i64 %.1.i65
  tail call void @llvm.memcpy.p0.p0.i64(ptr noundef nonnull align 1 dereferenceable(1) %88, ptr noundef nonnull align 1 dereferenceable(1) %.026.i62, i64 %87, i1 false)
  %89 = add nuw nsw i64 %87, %.1.i65
  %90 = getelementptr inbounds nuw i8, ptr %.026.i62, i64 %87
  %91 = sub i64 %.02125.i63, %87
  %.not.i66 = icmp eq i64 %91, 0
  br i1 %.not.i66, label %AppendJumble.exit67.loopexit, label %.lr.ph.i61, !llvm.loop !7

AppendJumble.exit67.loopexit:                     ; preds = %85
  %.pre.pre = load ptr, ptr %0, align 8
  br label %AppendJumble.exit67

AppendJumble.exit67:                              ; preds = %AppendJumble.exit67.loopexit, %79
  %.pre = phi ptr [ %.pre99, %79 ], [ %.pre.pre, %AppendJumble.exit67.loopexit ]
  %.022.lcssa.i = phi i64 [ %.pre100, %79 ], [ %89, %AppendJumble.exit67.loopexit ]
  store i64 %.022.lcssa.i, ptr %5, align 8
  br label %92

92:                                               ; preds = %AppendJumble.exit67, %AppendJumble.exit60
  %93 = phi i64 [ %.022.lcssa.i, %AppendJumble.exit67 ], [ %.pre100, %AppendJumble.exit60 ]
  %94 = phi ptr [ %.pre, %AppendJumble.exit67 ], [ %.pre99, %AppendJumble.exit60 ]
  %95 = getelementptr inbounds nuw i8, ptr %1, i64 152
  br label %.lr.ph.i68

.lr.ph.i68:                                       ; preds = %99, %92
  %.026.i69 = phi ptr [ %104, %99 ], [ %95, %92 ]
  %.02125.i70 = phi i64 [ %105, %99 ], [ 4, %92 ]
  %.02224.i71 = phi i64 [ %103, %99 ], [ %93, %92 ]
  %96 = icmp ugt i64 %.02224.i71, 1023
  br i1 %96, label %97, label %99

97:                                               ; preds = %.lr.ph.i68
  %98 = tail call i64 @hash_bytes_extended(ptr noundef %94, i32 noundef 1024, i64 noundef 0) #9
  store i64 %98, ptr %94, align 1
  br label %99

99:                                               ; preds = %97, %.lr.ph.i68
  %.1.i72 = phi i64 [ 8, %97 ], [ %.02224.i71, %.lr.ph.i68 ]
  %100 = sub nuw nsw i64 1024, %.1.i72
  %101 = tail call i64 @llvm.umin.i64(i64 %.02125.i70, i64 %100)
  %102 = getelementptr inbounds nuw i8, ptr %94, i64 %.1.i72
  tail call void @llvm.memcpy.p0.p0.i64(ptr noundef nonnull align 1 dereferenceable(1) %102, ptr noundef nonnull align 1 dereferenceable(1) %.026.i69, i64 %101, i1 false)
  %103 = add nuw nsw i64 %101, %.1.i72
  %104 = getelementptr inbounds nuw i8, ptr %.026.i69, i64 %101
  %105 = sub i64 %.02125.i70, %101
  %.not.i73 = icmp eq i64 %105, 0
  br i1 %.not.i73, label %AppendJumble.exit75, label %.lr.ph.i68, !llvm.loop !7

AppendJumble.exit75:                              ; preds = %99
  store i64 %103, ptr %5, align 8
  %106 = getelementptr inbounds nuw i8, ptr %1, i64 184
  %107 = load ptr, ptr %106, align 8
  %.not32 = icmp eq ptr %107, null
  br i1 %.not32, label %122, label %108

108:                                              ; preds = %AppendJumble.exit75
  %109 = tail call i64 @strlen(ptr noundef nonnull dereferenceable(1) %107) #8
  %110 = add i64 %109, 1
  %111 = load ptr, ptr %0, align 8
  %.not23.i76 = icmp eq i64 %110, 0
  br i1 %.not23.i76, label %AppendJumble.exit84, label %.lr.ph.i77

.lr.ph.i77:                                       ; preds = %108, %115
  %.026.i78 = phi ptr [ %120, %115 ], [ %107, %108 ]
  %.02125.i79 = phi i64 [ %121, %115 ], [ %110, %108 ]
  %.02224.i80 = phi i64 [ %119, %115 ], [ %103, %108 ]
  %112 = icmp ugt i64 %.02224.i80, 1023
  br i1 %112, label %113, label %115

113:                                              ; preds = %.lr.ph.i77
  %114 = tail call i64 @hash_bytes_extended(ptr noundef %111, i32 noundef 1024, i64 noundef 0) #9
  store i64 %114, ptr %111, align 1
  br label %115

115:                                              ; preds = %113, %.lr.ph.i77
  %.1.i81 = phi i64 [ 8, %113 ], [ %.02224.i80, %.lr.ph.i77 ]
  %116 = sub nuw nsw i64 1024, %.1.i81
  %117 = tail call i64 @llvm.umin.i64(i64 %.02125.i79, i64 %116)
  %118 = getelementptr inbounds nuw i8, ptr %111, i64 %.1.i81
  tail call void @llvm.memcpy.p0.p0.i64(ptr noundef nonnull align 1 dereferenceable(1) %118, ptr noundef nonnull align 1 dereferenceable(1) %.026.i78, i64 %117, i1 false)
  %119 = add nuw nsw i64 %117, %.1.i81
  %120 = getelementptr inbounds nuw i8, ptr %.026.i78, i64 %117
  %121 = sub i64 %.02125.i79, %117
  %.not.i82 = icmp eq i64 %121, 0
  br i1 %.not.i82, label %AppendJumble.exit84, label %.lr.ph.i77, !llvm.loop !7

AppendJumble.exit84:                              ; preds = %115, %108
  %.022.lcssa.i83 = phi i64 [ %103, %108 ], [ %119, %115 ]
  store i64 %.022.lcssa.i83, ptr %5, align 8
  br label %122

122:                                              ; preds = %AppendJumble.exit84, %AppendJumble.exit75
  ret void
}